Certificate:
    Data:
        Version: 3 (0x2)
        Serial Number: 25 (0x19)
        Signature Algorithm: sha256WithRSAEncryption
        Issuer: C=US, ST=MA, L=Hull, O=U.S. Government, OU=USAF, CN=SubCA
        Validity
            Not Before: Jun 17 17:22:42 2024 GMT
            Not After : Jun 17 17:22:42 2025 GMT
        Subject: C=US, ST=MA, L=Hull, O=U.S. Government, OU=USAF, CN=NGNIX-17-June-2024
        Subject Public Key Info:
            Public Key Algorithm: rsaEncryption
                Public-Key: (2048 bit)
                Modulus:
                    00:95:9e:b0:a5:3d:d5:37:24:70:ab:cd:15:c9:c2:
                    1a:6c:87:42:5b:2b:f3:20:4a:66:eb:92:5f:96:b7:
                    60:63:fc:f8:e5:fb:38:78:45:09:48:53:2a:2c:71:
                    08:fa:79:2a:14:11:73:d1:f7:40:25:e9:1d:0d:a1:
                    bd:6c:83:91:bf:da:b0:57:10:96:c7:3f:6f:47:63:
                    0b:d3:6b:38:2a:aa:a1:8d:19:5c:9f:1a:84:aa:ec:
                    b5:03:e7:59:6b:0a:d3:76:59:86:a9:fa:21:ea:08:
                    16:a0:d6:51:ef:e9:4d:2e:2a:d5:48:ef:59:b7:4c:
                    cf:1f:1a:e6:f9:ba:ea:e2:27:a3:fd:3d:c8:5a:b6:
                    42:8c:21:0b:47:aa:d2:4b:c3:e3:41:2c:9d:63:4c:
                    56:e9:d3:c5:1a:f1:73:36:43:c3:be:be:8e:b3:6e:
                    dc:d2:01:10:a1:c1:68:36:74:88:f7:2c:ce:d6:f6:
                    5e:29:48:94:e0:10:56:03:f9:0f:f1:19:b1:88:c7:
                    3e:ff:ec:91:b9:94:62:33:36:70:d2:50:d5:7c:3b:
                    e6:4f:18:46:ee:41:50:ea:71:3d:1c:2c:45:3a:f7:
                    17:d9:3b:6d:3e:f0:4a:af:de:8d:4d:12:ef:9b:04:
                    52:45:39:08:f4:9a:b4:2e:fd:c5:9a:79:00:13:3f:
                    cb:81
                Exponent: 65537 (0x10001)
        X509v3 extensions:
            X509v3 CRL Distribution Points: 
                Full Name:
                  URI:http://localhost:8000/crl/distripoint.crl.pem
            X509v3 Certificate Policies: 
                Policy: 2.16.840.1.101.2.1.11.36
            X509v3 Key Usage: critical
                Digital Signature, Non Repudiation
            X509v3 Subject Key Identifier: 
                AC:BA:90:F8:F6:C2:C9:BD:86:22:F5:4D:75:D9:AF:50:05:CD:8A:44
            X509v3 Authority Key Identifier: 
                EC:4F:6F:2E:E6:F6:64:EC:17:30:2A:10:76:C2:BD:38:7A:DA:A0:AF
    Signature Algorithm: sha256WithRSAEncryption
    Signature Value:
        b0:e1:1d:36:96:52:08:01:14:6c:99:1c:65:26:7b:56:12:98:
        aa:9c:64:fa:42:c1:bc:4f:de:f5:04:7d:24:9f:49:8b:5c:fb:
        a5:62:8b:af:51:1a:63:7e:3e:4f:61:33:4a:02:38:41:71:2f:
        a9:04:7e:b3:e9:79:69:82:c3:39:bb:0b:e2:55:78:09:f8:c4:
        a3:fd:d7:6c:a3:2f:a1:c4:9a:d1:ff:7a:c9:62:f5:fa:58:53:
        62:5b:38:22:29:00:da:30:90:27:98:cd:68:d5:2a:14:c0:ac:
        13:05:03:51:7c:d7:5f:5f:8f:3f:db:0d:4e:7a:f1:17:91:88:
        db:d8:36:d7:0e:15:1e:41:1c:02:81:16:6d:e0:80:db:0b:4d:
        d7:31:ee:71:c5:40:c4:7a:1f:cc:4d:2f:66:f6:98:9e:6b:56:
        22:14:b0:cb:ab:bb:00:d9:d5:6f:0e:97:1d:17:11:a9:9c:07:
        a0:14:f7:d7:7c:79:46:9b:25:6c:a2:23:ee:a7:db:7f:bc:b6:
        64:d1:73:0d:2c:85:2b:88:da:ee:f8:e8:48:95:80:41:4e:72:
        ee:53:5d:7d:3a:d5:e3:30:07:a6:af:f2:98:7e:ac:df:01:52:
        1a:71:61:4e:5b:1b:85:e0:5b:07:23:20:6a:c9:8d:37:39:d1:
        29:fe:d5:b0
-----BEGIN CERTIFICATE-----
MIID+DCCAuCgAwIBAgIBGTANBgkqhkiG9w0BAQsFADBiMQswCQYDVQQGEwJVUzEL
MAkGA1UECAwCTUExDTALBgNVBAcMBEh1bGwxGDAWBgNVBAoMD1UuUy4gR292ZXJu
bWVudDENMAsGA1UECwwEVVNBRjEOMAwGA1UEAwwFU3ViQ0EwHhcNMjQwNjE3MTcy
MjQyWhcNMjUwNjE3MTcyMjQyWjBvMQswCQYDVQQGEwJVUzELMAkGA1UECAwCTUEx
DTALBgNVBAcMBEh1bGwxGDAWBgNVBAoMD1UuUy4gR292ZXJubWVudDENMAsGA1UE
CwwEVVNBRjEbMBkGA1UEAwwSTkdOSVgtMTctSnVuZS0yMDI0MIIBIjANBgkqhkiG
9w0BAQEFAAOCAQ8AMIIBCgKCAQEAlZ6wpT3VNyRwq80VycIabIdCWyvzIEpm65Jf
lrdgY/z45fs4eEUJSFMqLHEI+nkqFBFz0fdAJekdDaG9bIORv9qwVxCWxz9vR2ML
02s4KqqhjRlcnxqEquy1A+dZawrTdlmGqfoh6ggWoNZR7+lNLirVSO9Zt0zPHxrm
+brq4iej/T3IWrZCjCELR6rSS8PjQSydY0xW6dPFGvFzNkPDvr6Os27c0gEQocFo
NnSI9yzO1vZeKUiU4BBWA/kP8RmxiMc+/+yRuZRiMzZw0lDVfDvmTxhG7kFQ6nE9
HCxFOvcX2TttPvBKr96NTRLvmwRSRTkI9Jq0Lv3FmnkAEz/LgQIDAQABo4GrMIGo
MD4GA1UdHwQ3MDUwM6AxoC+GLWh0dHA6Ly9sb2NhbGhvc3Q6ODAwMC9jcmwvZGlz
dHJpcG9pbnQuY3JsLnBlbTAWBgNVHSAEDzANMAsGCWCGSAFlAgELJDAOBgNVHQ8B
Af8EBAMCBsAwHQYDVR0OBBYEFKy6kPj2wsm9hiL1TXXZr1AFzYpEMB8GA1UdIwQY
MBaAFOxPby7m9mTsFzAqEHbCvTh62qCvMA0GCSqGSIb3DQEBCwUAA4IBAQCw4R02
llIIARRsmRxlJntWEpiqnGT6QsG8T971BH0kn0mLXPulYouvURpjfj5PYTNKAjhB
cS+pBH6z6XlpgsM5uwviVXgJ+MSj/ddsoy+hxJrR/3rJYvX6WFNiWzgiKQDaMJAn
mM1o1SoUwKwTBQNRfNdfX48/2w1OevEXkYjb2DbXDhUeQRwCgRZt4IDbC03XMe5x
xUDEeh/MTS9m9piea1YiFLDLq7sA2dVvDpcdFxGpnAegFPfXfHlGmyVsoiPup9t/
vLZk0XMNLIUriNru+OhIlYBBTnLuU119OtXjMAemr/KYfqzfAVIacWFOWxuF4FsH
IyBqyY03OdEp/tWw
-----END CERTIFICATE-----
