Certificate:
    Data:
        Version: 3 (0x2)
        Serial Number: 29 (0x1d)
        Signature Algorithm: sha256WithRSAEncryption
        Issuer: C=US, ST=MA, L=Hull, O=U.S. Government, OU=USAF, CN=SubCA
        Validity
            Not Before: Apr 29 17:58:40 2025 GMT
            Not After : Apr 29 17:58:40 2026 GMT
        Subject: C=US, ST=MA, L=Hull, O=U.S. Government, OU=USAF, CN=NGNIX-29-Apr-2025
        Subject Public Key Info:
            Public Key Algorithm: rsaEncryption
                Public-Key: (2048 bit)
                Modulus:
                    00:ce:2a:18:d8:eb:b0:34:c7:16:f3:0f:2f:eb:ed:
                    4e:d7:97:df:46:da:7d:bb:9c:94:1f:7a:74:96:3b:
                    ec:4f:50:46:a6:9e:77:fe:f8:89:ac:99:bb:c3:82:
                    4e:65:72:44:3f:cc:a0:55:47:24:e4:db:0a:01:3b:
                    93:f8:5f:de:ed:9e:3c:b0:15:ba:d7:14:b3:54:cd:
                    d1:c0:27:db:75:f1:c5:06:e6:94:55:c5:19:b6:fd:
                    ef:b6:ff:19:76:5f:38:29:7a:bb:17:df:b9:cc:a9:
                    3b:55:0e:ba:7f:f3:da:a3:a2:4f:22:3b:e2:0b:c8:
                    78:01:76:b2:82:fa:2e:bc:9a:99:08:3e:f4:f1:e0:
                    09:de:dd:c4:f1:1d:c7:26:27:40:96:66:d9:60:e5:
                    f2:35:99:1e:b8:a6:f9:3e:9e:25:37:cf:f1:a0:91:
                    a6:f6:2b:11:89:85:cd:ae:3f:bc:7e:5b:91:e6:4d:
                    b7:8c:d2:da:8c:36:8c:c5:62:27:1e:7b:23:88:d1:
                    bc:38:bc:0c:04:d4:d1:4c:4d:4f:f6:20:f5:fb:f5:
                    de:b1:6b:72:dd:d0:89:9b:39:3f:b1:ec:61:65:bb:
                    73:c0:b8:b1:75:4a:21:d5:03:e1:c2:d1:85:c8:b4:
                    7a:09:3f:5a:7f:64:04:17:54:77:3e:88:62:fd:a4:
                    7b:49
                Exponent: 65537 (0x10001)
        X509v3 extensions:
            X509v3 CRL Distribution Points: 
                Full Name:
                  URI:http://localhost:8000/crl/distripoint.crl.pem
            X509v3 Certificate Policies: 
                Policy: 2.16.840.1.101.2.1.11.36
            X509v3 Key Usage: critical
                Digital Signature, Non Repudiation
            X509v3 Subject Alternative Name: 
                DNS:localhost, IP Address:192.168.0.5
            X509v3 Subject Key Identifier: 
                FA:EC:78:53:7D:F3:1F:44:5D:78:3A:1F:A9:5D:9F:16:40:CF:2F:61
            X509v3 Authority Key Identifier: 
                EC:4F:6F:2E:E6:F6:64:EC:17:30:2A:10:76:C2:BD:38:7A:DA:A0:AF
    Signature Algorithm: sha256WithRSAEncryption
    Signature Value:
        9d:2d:37:16:65:93:e8:11:6c:1b:1e:ff:35:ee:3f:e7:09:a8:
        6c:68:fd:19:dc:ef:6b:cd:bb:e3:d4:00:91:72:2b:7b:15:4c:
        b9:6b:d5:7e:56:33:9e:21:92:42:1b:35:82:95:d1:51:21:19:
        c0:8c:4a:86:83:a5:26:01:72:61:58:30:2b:35:be:b4:d8:9c:
        2a:15:57:50:c3:df:d8:28:f3:4f:92:3c:97:44:ab:3e:55:51:
        02:f7:48:f9:d9:15:71:b2:83:a6:78:cd:49:20:c0:5d:5b:a8:
        c3:3f:e8:af:6d:58:cd:67:15:88:b7:28:6d:8a:42:48:ce:a7:
        58:0a:c9:51:67:50:b9:bb:d5:58:5d:cd:c1:a4:fa:b7:ad:f8:
        33:07:cd:45:e1:81:8b:4e:2c:79:bc:15:f0:dc:e7:28:e0:a0:
        17:4a:4c:04:70:76:8d:4f:a2:5c:3d:d2:35:32:05:9d:51:01:
        48:98:98:08:06:d9:25:f5:62:30:01:6d:0d:15:dc:53:be:c8:
        fe:40:6c:82:2f:f9:97:f2:33:ee:6e:31:b2:2a:11:2b:10:69:
        7e:f3:2b:1e:51:c2:ca:12:56:bb:22:cc:1a:c5:02:5a:b6:7f:
        96:0b:24:9c:64:8e:47:0d:ed:18:9c:7e:7a:a6:32:20:0a:98:
        d4:5a:a2:4a
-----BEGIN CERTIFICATE-----
MIIEEzCCAvugAwIBAgIBHTANBgkqhkiG9w0BAQsFADBiMQswCQYDVQQGEwJVUzEL
MAkGA1UECAwCTUExDTALBgNVBAcMBEh1bGwxGDAWBgNVBAoMD1UuUy4gR292ZXJu
bWVudDENMAsGA1UECwwEVVNBRjEOMAwGA1UEAwwFU3ViQ0EwHhcNMjUwNDI5MTc1
ODQwWhcNMjYwNDI5MTc1ODQwWjBuMQswCQYDVQQGEwJVUzELMAkGA1UECAwCTUEx
DTALBgNVBAcMBEh1bGwxGDAWBgNVBAoMD1UuUy4gR292ZXJubWVudDENMAsGA1UE
CwwEVVNBRjEaMBgGA1UEAwwRTkdOSVgtMjktQXByLTIwMjUwggEiMA0GCSqGSIb3
DQEBAQUAA4IBDwAwggEKAoIBAQDOKhjY67A0xxbzDy/r7U7Xl99G2n27nJQfenSW
O+xPUEamnnf++ImsmbvDgk5lckQ/zKBVRyTk2woBO5P4X97tnjywFbrXFLNUzdHA
J9t18cUG5pRVxRm2/e+2/xl2XzgpersX37nMqTtVDrp/89qjok8iO+ILyHgBdrKC
+i68mpkIPvTx4Ane3cTxHccmJ0CWZtlg5fI1mR64pvk+niU3z/Ggkab2KxGJhc2u
P7x+W5HmTbeM0tqMNozFYiceeyOI0bw4vAwE1NFMTU/2IPX79d6xa3Ld0ImbOT+x
7GFlu3PAuLF1SiHVA+HC0YXItHoJP1p/ZAQXVHc+iGL9pHtJAgMBAAGjgccwgcQw
PgYDVR0fBDcwNTAzoDGgL4YtaHR0cDovL2xvY2FsaG9zdDo4MDAwL2NybC9kaXN0
cmlwb2ludC5jcmwucGVtMBYGA1UdIAQPMA0wCwYJYIZIAWUCAQskMA4GA1UdDwEB
/wQEAwIGwDAaBgNVHREEEzARgglsb2NhbGhvc3SHBMCoAAUwHQYDVR0OBBYEFPrs
eFN98x9EXXg6H6ldnxZAzy9hMB8GA1UdIwQYMBaAFOxPby7m9mTsFzAqEHbCvTh6
2qCvMA0GCSqGSIb3DQEBCwUAA4IBAQCdLTcWZZPoEWwbHv817j/nCahsaP0Z3O9r
zbvj1ACRcit7FUy5a9V+VjOeIZJCGzWCldFRIRnAjEqGg6UmAXJhWDArNb602Jwq
FVdQw9/YKPNPkjyXRKs+VVEC90j52RVxsoOmeM1JIMBdW6jDP+ivbVjNZxWItyht
ikJIzqdYCslRZ1C5u9VYXc3BpPq3rfgzB81F4YGLTix5vBXw3Oco4KAXSkwEcHaN
T6JcPdI1MgWdUQFImJgIBtkl9WIwAW0NFdxTvsj+QGyCL/mX8jPubjGyKhErEGl+
8yseUcLKEla7IswaxQJatn+WCyScZI5HDe0YnH56pjIgCpjUWqJK
-----END CERTIFICATE-----
